target datalayout = "e-m:e-p270:32:32-p271:32:32-p272:64:64-i64:64-i128:128-f80:128-n8:16:32:64-S128"
target triple = "x86_64-pc-linux-gnu"

%"class.tbb::detail::r1::thread_dispatcher" = type { %"class.tbb::detail::r1::rml::tbb_client", %"class.tbb::detail::d1::rw_mutex", [3 x %"class.tbb::detail::r1::intrusive_list"], ptr, i8, ptr, %"struct.std::atomic.0", i32, i64, %"struct.std::atomic.2", ptr }
%"class.tbb::detail::r1::rml::tbb_client" = type { %"class.rml::client" }
%"class.rml::client" = type { %"class.rml::versioned_object" }
%"class.rml::versioned_object" = type { ptr }
%"class.tbb::detail::d1::rw_mutex" = type { %"struct.std::atomic" }
%"struct.std::atomic" = type { %"struct.std::__atomic_base" }
%"struct.std::__atomic_base" = type { i64 }
%"class.tbb::detail::r1::intrusive_list" = type { %"class.tbb::detail::r1::intrusive_list_base" }
%"class.tbb::detail::r1::intrusive_list_base" = type { %"struct.tbb::detail::d1::intrusive_list_node", i64 }
%"struct.tbb::detail::d1::intrusive_list_node" = type { ptr, ptr }
%"struct.std::atomic.0" = type { %"struct.std::__atomic_base.1" }
%"struct.std::__atomic_base.1" = type { i64 }
%"struct.std::atomic.2" = type { %"struct.std::__atomic_base.3" }
%"struct.std::__atomic_base.3" = type { i32 }
%"class.tbb::detail::r1::thread_dispatcher_client" = type { %"struct.tbb::detail::d1::intrusive_list_node", ptr, i64 }

; Function Attrs: mustprogress nounwind sspstrong uwtable
define linkonce_odr noundef i32 @_ZStanSt12memory_orderSt23__memory_order_modifier(i32 noundef %0, i32 noundef %1) #2 comdat {
  %3 = alloca i32, align 4
  %4 = alloca i32, align 4
  store i32 %0, ptr %3, align 4, !tbaa !177
  store i32 %1, ptr %4, align 4, !tbaa !181
  %5 = load i32, ptr %3, align 4, !tbaa !177
  %6 = load i32, ptr %4, align 4, !tbaa !181
  %7 = and i32 %5, %6
  ret i32 %7
}

; Function Attrs: inlinehint mustprogress nounwind sspstrong uwtable
define linkonce_odr void @_ZN3tbb6detail2d119intrusive_list_nodeC2Ev(ptr noundef nonnull align 8 dereferenceable(16) %0) unnamed_addr #1 comdat align 2 {
  %2 = alloca ptr, align 8
  store ptr %0, ptr %2, align 8, !tbaa !85
  %3 = load ptr, ptr %2, align 8
  %4 = getelementptr inbounds nuw %"struct.tbb::detail::d1::intrusive_list_node", ptr %3, i32 0, i32 0
  store ptr null, ptr %4, align 8, !tbaa !81
  %5 = getelementptr inbounds nuw %"struct.tbb::detail::d1::intrusive_list_node", ptr %3, i32 0, i32 1
  store ptr null, ptr %5, align 8, !tbaa !80
  ret void
}

; Function Attrs: alwaysinline mustprogress nounwind sspstrong uwtable
define linkonce_odr noundef i64 @_ZNKSt13__atomic_baseImE4loadESt12memory_order(ptr noundef nonnull align 8 dereferenceable(8) %0, i32 noundef %1) #10 comdat align 2 {
  %3 = alloca ptr, align 8
  %4 = alloca i32, align 4
  %5 = alloca i32, align 4
  %6 = alloca i64, align 8
  store ptr %0, ptr %3, align 8, !tbaa !65
  store i32 %1, ptr %4, align 4, !tbaa !177
  %7 = load ptr, ptr %3, align 8
  call void @llvm.lifetime.start.p0(i64 4, ptr %5) #11
  %8 = load i32, ptr %4, align 4, !tbaa !177
  %9 = call noundef i32 @_ZStanSt12memory_orderSt23__memory_order_modifier(i32 noundef %8, i32 noundef 65535)
  store i32 %9, ptr %5, align 4, !tbaa !177
  br label %10

10:                                               ; preds = %2
  br label %11

11:                                               ; preds = %10
  br label %12

12:                                               ; preds = %11
  br label %13

13:                                               ; preds = %12
  br label %14

14:                                               ; preds = %13
  br label %15

15:                                               ; preds = %14
  %16 = getelementptr inbounds nuw %"struct.std::__atomic_base.1", ptr %7, i32 0, i32 0
  %17 = load i32, ptr %4, align 4, !tbaa !177
  switch i32 %17, label %18 [
    i32 1, label %20
    i32 2, label %20
    i32 5, label %22
  ]

18:                                               ; preds = %15
  %19 = load atomic i64, ptr %16 monotonic, align 8
  store i64 %19, ptr %6, align 8
  br label %24

20:                                               ; preds = %15, %15
  %21 = load atomic i64, ptr %16 acquire, align 8
  store i64 %21, ptr %6, align 8
  br label %24

22:                                               ; preds = %15
  %23 = load atomic i64, ptr %16 seq_cst, align 8
  store i64 %23, ptr %6, align 8
  br label %24

24:                                               ; preds = %22, %20, %18
  %25 = load i64, ptr %6, align 8, !tbaa !12
  call void @llvm.lifetime.end.p0(i64 4, ptr %5) #11
  ret i64 %25
}

; Function Attrs: mustprogress nounwind sspstrong uwtable
define linkonce_odr void @_ZN3tbb6detail2r124thread_dispatcher_clientC2ERNS1_5arenaEm(ptr noundef nonnull align 8 dereferenceable(32) %0, ptr noundef nonnull align 128 dereferenceable(768) %1, i64 noundef %2) unnamed_addr #2 comdat align 2 {
  %4 = alloca ptr, align 8
  %5 = alloca ptr, align 8
  %6 = alloca i64, align 8
  store ptr %0, ptr %4, align 8, !tbaa !48
  store ptr %1, ptr %5, align 8, !tbaa !64
  store i64 %2, ptr %6, align 8, !tbaa !12
  %7 = load ptr, ptr %4, align 8
  call void @_ZN3tbb6detail2d119intrusive_list_nodeC2Ev(ptr noundef nonnull align 8 dereferenceable(16) %7) #11
  %8 = getelementptr inbounds nuw %"class.tbb::detail::r1::thread_dispatcher_client", ptr %7, i32 0, i32 1
  %9 = load ptr, ptr %5, align 8, !tbaa !64
  store ptr %9, ptr %8, align 8, !tbaa !64
  %10 = getelementptr inbounds nuw %"class.tbb::detail::r1::thread_dispatcher_client", ptr %7, i32 0, i32 2
  %11 = load i64, ptr %6, align 8, !tbaa !12
  store i64 %11, ptr %10, align 8, !tbaa !67
  ret void
}

; Function Attrs: mustprogress nounwind sspstrong uwtable
define linkonce_odr noundef i64 @_ZNKSt13__atomic_baseImEcvmEv(ptr noundef nonnull align 8 dereferenceable(8) %0) #2 comdat align 2 {
  %2 = alloca ptr, align 8
  store ptr %0, ptr %2, align 8, !tbaa !65
  %3 = load ptr, ptr %2, align 8
  %4 = call noundef i64 @_ZNKSt13__atomic_baseImE4loadESt12memory_order(ptr noundef nonnull align 8 dereferenceable(8) %3, i32 noundef 5) #11
  ret i64 %4
}

; Function Attrs: mustprogress sspstrong uwtable
define noundef ptr @_ZN3tbb6detail2r117thread_dispatcher13create_clientERNS1_5arenaE(ptr noundef nonnull align 8 dereferenceable(152) %0, ptr noundef nonnull align 128 dereferenceable(768) %1) #0 align 2 {
  %3 = alloca ptr, align 8
  %4 = alloca ptr, align 8
  store ptr %0, ptr %3, align 8, !tbaa !3
  store ptr %1, ptr %4, align 8, !tbaa !64
  %5 = load ptr, ptr %3, align 8
  %6 = call noundef ptr @_ZN3tbb6detail2r122cache_aligned_allocateEm(i64 noundef 32)
  %7 = load ptr, ptr %4, align 8, !tbaa !64
  %8 = getelementptr inbounds nuw %"class.tbb::detail::r1::thread_dispatcher", ptr %5, i32 0, i32 6
  %9 = call noundef i64 @_ZNKSt13__atomic_baseImEcvmEv(ptr noundef nonnull align 8 dereferenceable(8) %8) #11
  call void @_ZN3tbb6detail2r124thread_dispatcher_clientC2ERNS1_5arenaEm(ptr noundef nonnull align 8 dereferenceable(32) %6, ptr noundef nonnull align 128 dereferenceable(768) %7, i64 noundef %9)
  ret ptr %6
}