; Function Attrs: mustprogress sspstrong uwtable
define noundef ptr @_ZN3tbb6detail2r117thread_dispatcher13create_clientERNS1_5arenaE(ptr noundef nonnull readonly align 8 captures(none) dereferenceable(152) %0, ptr noundef nonnull align 128 dereferenceable(768) %1) local_unnamed_addr #0 align 2 {
  %3 = tail call noundef ptr @_ZN3tbb6detail2r122cache_aligned_allocateEm(i64 noundef 32)
  %4 = getelementptr inbounds nuw i8, ptr %0, i64 112
  %5 = load atomic i64, ptr %4 seq_cst, align 8
  tail call void @llvm.memset.p0.i64(ptr noundef nonnull align 8 dereferenceable(32) %3, i8 0, i64 16, i1 false)
  %6 = getelementptr inbounds nuw i8, ptr %3, i64 16
  store ptr %1, ptr %6, align 8, !tbaa !75
  %7 = getelementptr inbounds nuw i8, ptr %3, i64 24
  store i64 %5, ptr %7, align 8, !tbaa !76
  ret ptr %3
}